; Function Attrs: mustprogress uwtable
define void @_ZNK8facebook5velox4core12ExchangeNode9serializeEv(ptr noalias sret(%"struct.folly::dynamic") align 8 %agg.result, ptr noundef nonnull align 8 dereferenceable(56) %this) unnamed_addr #0 align 2 personality ptr @__gxx_personality_v0 {
entry:
  %ref.tmp = alloca %"struct.folly::dynamic", align 8
  tail call void @_ZNK8facebook5velox4core8PlanNode9serializeEv(ptr sret(%"struct.folly::dynamic") align 8 %agg.result, ptr noundef nonnull align 8 dereferenceable(40) %this)
  %outputType_.i = getelementptr inbounds i8, ptr %this, i64 40
  %0 = load ptr, ptr %outputType_.i, align 8
  %vtable = load ptr, ptr %0, align 8
  %vfn = getelementptr inbounds i8, ptr %vtable, i64 120
  %1 = load ptr, ptr %vfn, align 8
  invoke void %1(ptr nonnull sret(%"struct.folly::dynamic") align 8 %ref.tmp, ptr noundef nonnull align 8 dereferenceable(120) %0)
          to label %invoke.cont3 unwind label %lpad

invoke.cont3:                                     ; preds = %entry
  %call7 = invoke noundef nonnull align 8 dereferenceable(40) ptr @_ZNR5folly7dynamicixENS_5RangeIPKcEE(ptr noundef nonnull align 8 dereferenceable(40) %agg.result, ptr nonnull @.str.52, ptr nonnull getelementptr inbounds ([11 x i8], ptr @.str.52, i64 0, i64 10))
          to label %invoke.cont6 unwind label %lpad4

invoke.cont6:                                     ; preds = %invoke.cont3
  %call8 = call noundef nonnull align 8 dereferenceable(40) ptr @_ZN5folly7dynamicaSEOS0_(ptr noundef nonnull align 8 dereferenceable(40) %call7, ptr noundef nonnull align 8 dereferenceable(40) %ref.tmp) #30
  call void @_ZN5folly7dynamic7destroyEv(ptr noundef nonnull align 8 dereferenceable(40) %ref.tmp) #30
  ret void

lpad:                                             ; preds = %entry
  %2 = landingpad { ptr, i32 }
          cleanup
  br label %ehcleanup

lpad4:                                            ; preds = %invoke.cont3
  %3 = landingpad { ptr, i32 }
          cleanup
  call void @_ZN5folly7dynamic7destroyEv(ptr noundef nonnull align 8 dereferenceable(40) %ref.tmp) #30
  br label %ehcleanup

ehcleanup:                                        ; preds = %lpad4, %lpad
  %.pn = phi { ptr, i32 } [ %3, %lpad4 ], [ %2, %lpad ]
  call void @_ZN5folly7dynamic7destroyEv(ptr noundef nonnull align 8 dereferenceable(40) %agg.result) #30
  resume { ptr, i32 } %.pn
}